target datalayout = "e-m:e-p270:32:32-p271:32:32-p272:64:64-i64:64-i128:128-f80:128-n8:16:32:64-S128"
target triple = "x86_64-unknown-linux-gnu"

%struct.alt_instr = type <{ i32, i32, %union.anon, i8, i8 }>
%union.anon = type { %struct.anon }
%struct.anon = type { i32 }
%struct.cpuinfo_x86 = type { i8, i8, i8, i8, i32, [5 x i32], i8, i8, i8, i32, i32, %union.anon.0, [16 x i8], [64 x i8], %struct.cpuinfo_topology, i32, i32, i32, i32, i32, i32, i64, i64, i16, i16, i16, i16, i8, i32, i8, i8 }
%union.anon.0 = type { i64, [88 x i8] }
%struct.cpuinfo_topology = type { i32, i32, i32, i32, i32, i32, i32, i32, i32, i32 }
%struct.mutex = type { %struct.atomic64_t, %struct.raw_spinlock, %struct.optimistic_spin_queue, %struct.list_head }
%struct.atomic64_t = type { i64 }
%struct.raw_spinlock = type { %struct.qspinlock }
%struct.qspinlock = type { %union.anon.1 }
%union.anon.1 = type { %struct.atomic_t }
%struct.atomic_t = type { i32 }
%struct.optimistic_spin_queue = type { %struct.atomic_t }
%struct.list_head = type { ptr, ptr }
%struct.core_text = type { i64, i64, ptr }
%struct.callthunk_sites = type { ptr, ptr, ptr, ptr }

@__call_sites = external dso_local global [0 x i32], align 4
@__call_sites_end = external dso_local global [0 x i32], align 4
@__alt_instructions = external dso_local global [0 x %struct.alt_instr], align 1
@__alt_instructions_end = external dso_local global [0 x %struct.alt_instr], align 1
@boot_cpu_data = external dso_local global %struct.cpuinfo_x86, align 8
@.str = private unnamed_addr constant [46 x i8] c"\016callthunks: Setting up call depth tracking\0A\00", align 1
@text_mutex = external dso_local global %struct.mutex, align 8
@builtin_coretext = internal constant %struct.core_text { i64 ptrtoint (ptr @_text to i64), i64 ptrtoint (ptr @_etext to i64), ptr @.str.6 }, align 8
@thunks_initialized = internal unnamed_addr global i1 false, section ".data..ro_after_init", align 1
@debug_callthunks = internal unnamed_addr global i1 false, align 4
@.str.1 = private unnamed_addr constant [38 x i8] c"\017callthunks: Patching call sites %s\0A\00", align 1
@.str.2 = private unnamed_addr constant [42 x i8] c"\017callthunks: Patching call sites done%s\0A\00", align 1

; Function Attrs: fn_ret_thunk_extern nounwind null_pointer_is_valid
define internal fastcc void @callthunks_setup(ptr nocapture noundef readonly %0, ptr noundef %1) unnamed_addr #5 align 16 {
  %3 = load i1, ptr @debug_callthunks, align 4
  br i1 %3, label %4, label %8

4:                                                ; preds = %2
  %5 = getelementptr inbounds i8, ptr %1, i64 16
  %6 = load ptr, ptr %5, align 8
  %7 = tail call i32 (ptr, ...) @_printk(ptr noundef nonnull @.str.1, ptr noundef %6) #13
  br label %8

8:                                                ; preds = %4, %2
  %9 = load ptr, ptr %0, align 8
  %10 = getelementptr inbounds i8, ptr %0, i64 8
  %11 = load ptr, ptr %10, align 8
  %12 = icmp ult ptr %9, %11
  br i1 %12, label %13, label %20

13:                                               ; preds = %13, %8
  %14 = phi ptr [ %18, %13 ], [ %9, %8 ]
  %15 = load i32, ptr %14, align 4
  %16 = sext i32 %15 to i64
  %17 = getelementptr i8, ptr %14, i64 %16
  tail call fastcc void @patch_call(ptr noundef %17, ptr noundef %1)
  %18 = getelementptr i8, ptr %14, i64 4
  %19 = icmp ult ptr %18, %11
  br i1 %19, label %13, label %20, !llvm.loop !7

20:                                               ; preds = %13, %8
  %21 = getelementptr inbounds i8, ptr %0, i64 16
  %22 = load ptr, ptr %21, align 8
  %23 = getelementptr inbounds i8, ptr %0, i64 24
  %24 = load ptr, ptr %23, align 8
  %25 = icmp ult ptr %22, %24
  br i1 %25, label %26, label %33

26:                                               ; preds = %26, %20
  %27 = phi ptr [ %31, %26 ], [ %22, %20 ]
  %28 = load i32, ptr %27, align 1
  %29 = sext i32 %28 to i64
  %30 = getelementptr i8, ptr %27, i64 %29
  tail call fastcc void @patch_call(ptr noundef %30, ptr noundef %1)
  %31 = getelementptr i8, ptr %27, i64 14
  %32 = icmp ult ptr %31, %24
  br i1 %32, label %26, label %33, !llvm.loop !10

33:                                               ; preds = %26, %20
  %34 = load i1, ptr @debug_callthunks, align 4
  br i1 %34, label %35, label %39

35:                                               ; preds = %33
  %36 = getelementptr inbounds i8, ptr %1, i64 16
  %37 = load ptr, ptr %36, align 8
  %38 = tail call i32 (ptr, ...) @_printk(ptr noundef nonnull @.str.2, ptr noundef %37) #13
  br label %39

39:                                               ; preds = %35, %33
  ret void
}

; Function Attrs: cold fn_ret_thunk_extern nounwind null_pointer_is_valid optsize
define dso_local void @callthunks_patch_builtin_calls() local_unnamed_addr #1 section ".init.text" align 16 {
  %1 = alloca %struct.callthunk_sites, align 8
  call void @llvm.lifetime.start.p0(i64 32, ptr nonnull %1) #12
  store ptr @__call_sites, ptr %1, align 8
  %2 = getelementptr inbounds i8, ptr %1, i64 8
  store ptr @__call_sites_end, ptr %2, align 8
  %3 = getelementptr inbounds i8, ptr %1, i64 16
  store ptr @__alt_instructions, ptr %3, align 8
  %4 = getelementptr inbounds i8, ptr %1, i64 24
  store ptr @__alt_instructions_end, ptr %4, align 8
  callbr void asm sideeffect "# ALT: oldinstr2\0A661:\0A\09jmp 6f\0A662:\0A# ALT: padding2\0A.skip -((((6651f-6641f) ^ (((6651f-6641f) ^ (6652f-6642f)) & -(-((6651f-6641f) < (6652f-6642f))))) - (662b-661b)) > 0) * (((6651f-6641f) ^ (((6651f-6641f) ^ (6652f-6642f)) & -(-((6651f-6641f) < (6652f-6642f))))) - (662b-661b)), 0x90\0A663:\0A.pushsection .altinstructions,\22a\22\0A .long 661b - .\0A .long 6641f - .\0A .4byte ( 3*32+21)\0A .byte 663b-661b\0A .byte 6651f-6641f\0A .long 661b - .\0A .long 6642f - .\0A .4byte ${0:P}\0A .byte 663b-661b\0A .byte 6652f-6642f\0A.popsection\0A.pushsection .altinstr_replacement, \22ax\22\0A# ALT: replacement 1\0A6641:\0A\09jmp ${4:l}\0A6651:\0A# ALT: replacement 2\0A6642:\0A\09\0A6652:\0A.popsection\0A.pushsection .altinstr_aux,\22ax\22\0A6:\0A testb $1,${2:P} (% rip)\0A jnz ${3:l}\0A jmp ${4:l}\0A.popsection\0A", "i,i,i,!i,!i,~{dirflag},~{fpsr},~{flags}"(i16 371, i32 8, ptr nonnull getelementptr inbounds (%struct.cpuinfo_x86, ptr @boot_cpu_data, i64 0, i32 11, i32 1, i64 38)) #12
          to label %5 [label %5, label %7], !srcloc !6

5:                                                ; preds = %0, %0
  %6 = tail call i32 (ptr, ...) @_printk(ptr noundef nonnull @.str) #13
  tail call void @mutex_lock(ptr noundef nonnull @text_mutex) #12
  call fastcc void @callthunks_setup(ptr noundef nonnull %1, ptr noundef nonnull @builtin_coretext)
  store i1 true, ptr @thunks_initialized, align 1
  tail call void @mutex_unlock(ptr noundef nonnull @text_mutex) #12
  br label %7

7:                                                ; preds = %5, %0
  call void @llvm.lifetime.end.p0(i64 32, ptr nonnull %1) #12
  ret void
}